target datalayout = "e-m:e-p270:32:32-p271:32:32-p272:64:64-i64:64-i128:128-f80:128-n8:16:32:64-S128"
target triple = "x86_64-pc-linux-gnu"

%struct.bf_t = type { ptr, i32, i64, i64, ptr }

; Function Attrs: nounwind uwtable
define dso_local i32 @bf_round(ptr noundef %0, i64 noundef %1, i32 noundef %2) #0 {
  %4 = alloca i32, align 4
  %5 = alloca ptr, align 8
  %6 = alloca i64, align 8
  %7 = alloca i32, align 4
  store ptr %0, ptr %5, align 8, !tbaa !12
  store i64 %1, ptr %6, align 8, !tbaa !27
  store i32 %2, ptr %7, align 4, !tbaa !29
  %8 = load ptr, ptr %5, align 8, !tbaa !12
  %9 = getelementptr inbounds nuw %struct.bf_t, ptr %8, i32 0, i32 3
  %10 = load i64, ptr %9, align 8, !tbaa !25
  %11 = icmp eq i64 %10, 0
  br i1 %11, label %12, label %13

12:                                               ; preds = %3
  store i32 0, ptr %4, align 4
  br label %21

13:                                               ; preds = %3
  %14 = load ptr, ptr %5, align 8, !tbaa !12
  %15 = load i64, ptr %6, align 8, !tbaa !27
  %16 = load i32, ptr %7, align 4, !tbaa !29
  %17 = load ptr, ptr %5, align 8, !tbaa !12
  %18 = getelementptr inbounds nuw %struct.bf_t, ptr %17, i32 0, i32 3
  %19 = load i64, ptr %18, align 8, !tbaa !25
  %20 = call i32 @__bf_round(ptr noundef %14, i64 noundef %15, i32 noundef %16, i64 noundef %19, i32 noundef 0)
  store i32 %20, ptr %4, align 4
  br label %21

21:                                               ; preds = %13, %12
  %22 = load i32, ptr %4, align 4
  ret i32 %22
}

; Function Attrs: nounwind uwtable
define dso_local i32 @bf_rint(ptr noundef %0, i32 noundef %1) #0 {
  %3 = alloca ptr, align 8
  %4 = alloca i32, align 4
  store ptr %0, ptr %3, align 8, !tbaa !12
  store i32 %1, ptr %4, align 4, !tbaa !29
  %5 = load ptr, ptr %3, align 8, !tbaa !12
  %6 = load i32, ptr %4, align 4, !tbaa !29
  %7 = or i32 %6, 16
  %8 = call i32 @bf_round(ptr noundef %5, i64 noundef 0, i32 noundef %7)
  ret i32 %8
}