; Function Attrs: nounwind uwtable
define dso_local range(i32 0, 33) i32 @bf_rint(ptr noundef captures(none) %0, i32 noundef %1) local_unnamed_addr #2 {
  %3 = getelementptr inbounds nuw i8, ptr %0, i64 24
  %4 = load i64, ptr %3, align 8, !tbaa !32
  %5 = icmp eq i64 %4, 0
  br i1 %5, label %bf_round.exit, label %6

6:                                                ; preds = %2
  %7 = or i32 %1, 16
  %8 = tail call fastcc i32 @__bf_round(ptr noundef nonnull %0, i64 noundef 0, i32 noundef %7, i64 noundef %4, i32 noundef 0)
  br label %bf_round.exit

bf_round.exit:                                    ; preds = %2, %6
  %.0.i = phi i32 [ %8, %6 ], [ 0, %2 ]
  ret i32 %.0.i
}